target datalayout = "e-m:e-p270:32:32-p271:32:32-p272:64:64-i64:64-i128:128-f80:128-n8:16:32:64-S128"
target triple = "x86_64-unknown-linux-gnu"

%struct.CPUArchState = type { [32 x i64], [32 x i64], [512 x i64], i64, i64, i64, i64, i64, i8, i64, i64, i64, [32 x i64], i64, %struct.float_status, i64, i64, i64, i64, i64, i64, i32, i32, i32, i32, i32, i64, i64, i32, i64, i64, ptr, ptr, i8, i64, i64, [8 x i8] }
%struct.float_status = type { i16, i8, i8, i8, i8, i8, i8, i8, i8, i8, i8, i8 }

; Function Attrs: nounwind sspstrong uwtable
define internal i32 @read_fcsr(ptr noundef %env, i32 noundef %csrno, ptr noundef %val) #0 {
entry:
  %env.addr = alloca ptr, align 8
  %csrno.addr = alloca i32, align 4
  %val.addr = alloca ptr, align 8
  store ptr %env, ptr %env.addr, align 8
  store i32 %csrno, ptr %csrno.addr, align 4
  store ptr %val, ptr %val.addr, align 8
  %0 = load ptr, ptr %env.addr, align 8
  %call = call i64 @riscv_cpu_get_fflags(ptr noundef %0)
  %shl = shl i64 %call, 0
  %1 = load ptr, ptr %env.addr, align 8
  %frm = getelementptr inbounds %struct.CPUArchState, ptr %1, i32 0, i32 13
  %2 = load i64, ptr %frm, align 8
  %shl1 = shl i64 %2, 5
  %or = or i64 %shl, %shl1
  %3 = load ptr, ptr %val.addr, align 8
  store i64 %or, ptr %3, align 8
  ret i32 -1
}