; Function Attrs: nounwind sspstrong uwtable
define internal noundef i32 @read_fcsr(ptr noundef %env, i32 %csrno, ptr noundef writeonly captures(none) initializes((0, 8)) %val) #2 {
entry:
  %call = tail call i64 @riscv_cpu_get_fflags(ptr noundef %env) #11
  %frm = getelementptr inbounds nuw i8, ptr %env, i64 4936
  %0 = load i64, ptr %frm, align 8
  %shl1 = shl i64 %0, 5
  %or = or i64 %shl1, %call
  store i64 %or, ptr %val, align 8
  ret i32 -1
}